target datalayout = "e-m:e-p270:32:32-p271:32:32-p272:64:64-i64:64-i128:128-f80:128-n8:16:32:64-S128"
target triple = "x86_64-pc-linux-gnu"

%struct._rpc_prog_info_value = type { ptr, i32, i32, ptr, ptr }

@rpc_progs = global ptr null, align 8
@.str.29 = private unnamed_addr constant [8 x i8] c"Unknown\00", align 1

; Function Attrs: null_pointer_is_valid sspstrong uwtable
define ptr @rpc_prog_name(i32 noundef %0) #0 {
  %2 = alloca i32, align 4
  %3 = alloca ptr, align 8
  %4 = alloca ptr, align 8
  store i32 %0, ptr %2, align 4
  call void @llvm.lifetime.start.p0(i64 8, ptr %3) #18
  store ptr null, ptr %3, align 8
  call void @llvm.lifetime.start.p0(i64 8, ptr %4) #18
  %5 = load ptr, ptr @rpc_progs, align 8
  %6 = load i32, ptr %2, align 4
  %7 = zext i32 %6 to i64
  %8 = inttoptr i64 %7 to ptr
  %9 = call ptr @g_hash_table_lookup(ptr noundef %5, ptr noundef %8)
  store ptr %9, ptr %4, align 8
  %10 = icmp eq ptr %9, null
  br i1 %10, label %11, label %12

11:                                               ; preds = %1
  store ptr @.str.29, ptr %3, align 8
  br label %16

12:                                               ; preds = %1
  %13 = load ptr, ptr %4, align 8
  %14 = getelementptr inbounds nuw %struct._rpc_prog_info_value, ptr %13, i32 0, i32 3
  %15 = load ptr, ptr %14, align 8
  store ptr %15, ptr %3, align 8
  br label %16

16:                                               ; preds = %12, %11
  %17 = load ptr, ptr %3, align 8
  call void @llvm.lifetime.end.p0(i64 8, ptr %4) #18
  call void @llvm.lifetime.end.p0(i64 8, ptr %3) #18
  ret ptr %17
}