; Function Attrs: null_pointer_is_valid sspstrong uwtable
define ptr @rpc_prog_name(i32 noundef %0) local_unnamed_addr #0 {
  %2 = load ptr, ptr @rpc_progs, align 8
  %3 = zext i32 %0 to i64
  %4 = inttoptr i64 %3 to ptr
  %5 = tail call ptr @g_hash_table_lookup(ptr noundef %2, ptr noundef %4)
  %6 = icmp eq ptr %5, null
  br i1 %6, label %10, label %7

7:                                                ; preds = %1
  %8 = getelementptr inbounds nuw i8, ptr %5, i64 16
  %9 = load ptr, ptr %8, align 8
  br label %10

10:                                               ; preds = %1, %7
  %.0 = phi ptr [ %9, %7 ], [ @.str.29, %1 ]
  ret ptr %.0
}